target datalayout = "e-m:e-p270:32:32-p271:32:32-p272:64:64-i64:64-i128:128-f80:128-n8:16:32:64-S128"
target triple = "x86_64-pc-linux-gnu"

%struct.Vec_Int_t_ = type { i32, i32, ptr }
%struct.Abc_Frame_t_ = type { ptr, ptr, ptr, ptr, ptr, ptr, ptr, ptr, ptr, ptr, i32, i32, i32, i32, i32, ptr, float, float, i32, i32, ptr, ptr, ptr, double, double, ptr, ptr, ptr, ptr, ptr, ptr, ptr, ptr, ptr, ptr, ptr, ptr, float, ptr, i32, ptr, ptr, ptr, ptr, ptr, i32, i32, i32, i32, i32, i32, ptr, ptr, ptr, ptr, ptr, ptr, i32, i32, ptr, ptr, ptr, ptr, ptr, ptr, ptr, ptr, ptr, ptr, ptr, ptr, ptr, ptr, ptr, ptr, ptr, ptr, ptr, ptr, ptr, ptr, ptr, ptr, ptr, ptr, ptr, ptr, ptr, ptr }
%struct.Vec_Flt_t_ = type { i32, i32, ptr }

@.str.11 = private unnamed_addr constant [44 x i8] c"GIA derived from MiniLut is not available.\0A\00", align 1

; Function Attrs: inlinehint nounwind uwtable
define internal void @Vec_IntFree(ptr noundef %0) #2 {
  %2 = alloca ptr, align 8
  store ptr %0, ptr %2, align 8, !tbaa !8
  %3 = load ptr, ptr %2, align 8, !tbaa !8
  %4 = getelementptr inbounds nuw %struct.Vec_Int_t_, ptr %3, i32 0, i32 2
  %5 = load ptr, ptr %4, align 8, !tbaa !17
  %6 = icmp ne ptr %5, null
  br i1 %6, label %7, label %13

7:                                                ; preds = %1
  %8 = load ptr, ptr %2, align 8, !tbaa !8
  %9 = getelementptr inbounds nuw %struct.Vec_Int_t_, ptr %8, i32 0, i32 2
  %10 = load ptr, ptr %9, align 8, !tbaa !17
  call void @free(ptr noundef %10) #13
  %11 = load ptr, ptr %2, align 8, !tbaa !8
  %12 = getelementptr inbounds nuw %struct.Vec_Int_t_, ptr %11, i32 0, i32 2
  store ptr null, ptr %12, align 8, !tbaa !17
  br label %14

13:                                               ; preds = %1
  br label %14

14:                                               ; preds = %13, %7
  %15 = load ptr, ptr %2, align 8, !tbaa !8
  %16 = icmp ne ptr %15, null
  br i1 %16, label %17, label %19

17:                                               ; preds = %14
  %18 = load ptr, ptr %2, align 8, !tbaa !8
  call void @free(ptr noundef %18) #13
  store ptr null, ptr %2, align 8, !tbaa !8
  br label %20

19:                                               ; preds = %14
  br label %20

20:                                               ; preds = %19, %17
  ret void
}

; Function Attrs: inlinehint nounwind uwtable
define internal float @Vec_FltEntry(ptr noundef %0, i32 noundef %1) #2 {
  %3 = alloca ptr, align 8
  %4 = alloca i32, align 4
  store ptr %0, ptr %3, align 8, !tbaa !138
  store i32 %1, ptr %4, align 4, !tbaa !12
  %5 = load ptr, ptr %3, align 8, !tbaa !138
  %6 = getelementptr inbounds nuw %struct.Vec_Flt_t_, ptr %5, i32 0, i32 2
  %7 = load ptr, ptr %6, align 8, !tbaa !139
  %8 = load i32, ptr %4, align 4, !tbaa !12
  %9 = sext i32 %8 to i64
  %10 = getelementptr inbounds float, ptr %7, i64 %9
  %11 = load float, ptr %10, align 4, !tbaa !142
  ret float %11
}

; Function Attrs: inlinehint nounwind uwtable
define internal i32 @Abc_Lit2Var(i32 noundef %0) #2 {
  %2 = alloca i32, align 4
  store i32 %0, ptr %2, align 4, !tbaa !12
  %3 = load i32, ptr %2, align 4, !tbaa !12
  %4 = ashr i32 %3, 1
  ret i32 %4
}

; Function Attrs: inlinehint nounwind uwtable
define internal i32 @Vec_IntEntry(ptr noundef %0, i32 noundef %1) #2 {
  %3 = alloca ptr, align 8
  %4 = alloca i32, align 4
  store ptr %0, ptr %3, align 8, !tbaa !8
  store i32 %1, ptr %4, align 4, !tbaa !12
  %5 = load ptr, ptr %3, align 8, !tbaa !8
  %6 = getelementptr inbounds nuw %struct.Vec_Int_t_, ptr %5, i32 0, i32 2
  %7 = load ptr, ptr %6, align 8, !tbaa !17
  %8 = load i32, ptr %4, align 4, !tbaa !12
  %9 = sext i32 %8 to i64
  %10 = getelementptr inbounds i32, ptr %7, i64 %9
  %11 = load i32, ptr %10, align 4, !tbaa !12
  ret i32 %11
}

; Function Attrs: inlinehint nounwind uwtable
define internal i32 @Vec_IntSize(ptr noundef %0) #2 {
  %2 = alloca ptr, align 8
  store ptr %0, ptr %2, align 8, !tbaa !8
  %3 = load ptr, ptr %2, align 8, !tbaa !8
  %4 = getelementptr inbounds nuw %struct.Vec_Int_t_, ptr %3, i32 0, i32 1
  %5 = load i32, ptr %4, align 4, !tbaa !43
  ret i32 %5
}

; Function Attrs: nounwind uwtable
define ptr @Abc_FrameReadMiniLutSwitching(ptr noundef %0) #0 {
  %2 = alloca ptr, align 8
  %3 = alloca ptr, align 8
  %4 = alloca ptr, align 8
  %5 = alloca i32, align 4
  %6 = alloca i32, align 4
  %7 = alloca ptr, align 8
  %8 = alloca i32, align 4
  store ptr %0, ptr %3, align 8, !tbaa !58
  call void @llvm.lifetime.start.p0(i64 8, ptr %4) #13
  call void @llvm.lifetime.start.p0(i64 4, ptr %5) #13
  call void @llvm.lifetime.start.p0(i64 4, ptr %6) #13
  call void @llvm.lifetime.start.p0(i64 8, ptr %7) #13
  store ptr null, ptr %7, align 8, !tbaa !83
  %9 = load ptr, ptr %3, align 8, !tbaa !58
  %10 = getelementptr inbounds nuw %struct.Abc_Frame_t_, ptr %9, i32 0, i32 81
  %11 = load ptr, ptr %10, align 8, !tbaa !128
  %12 = icmp eq ptr %11, null
  br i1 %12, label %13, label %15

13:                                               ; preds = %1
  %14 = call i32 (ptr, ...) @printf(ptr noundef @.str.11)
  store ptr null, ptr %2, align 8
  store i32 1, ptr %8, align 4
  br label %62

15:                                               ; preds = %1
  %16 = load ptr, ptr %3, align 8, !tbaa !58
  %17 = getelementptr inbounds nuw %struct.Abc_Frame_t_, ptr %16, i32 0, i32 81
  %18 = load ptr, ptr %17, align 8, !tbaa !128
  %19 = call ptr @Gia_ManComputeSwitchProbs(ptr noundef %18, i32 noundef 48, i32 noundef 16, i32 noundef 0)
  store ptr %19, ptr %4, align 8, !tbaa !8
  %20 = load ptr, ptr %3, align 8, !tbaa !58
  %21 = getelementptr inbounds nuw %struct.Abc_Frame_t_, ptr %20, i32 0, i32 83
  %22 = load ptr, ptr %21, align 8, !tbaa !136
  %23 = call i32 @Vec_IntSize(ptr noundef %22)
  %24 = sext i32 %23 to i64
  %25 = call noalias ptr @calloc(i64 noundef %24, i64 noundef 4) #16
  store ptr %25, ptr %7, align 8, !tbaa !83
  store i32 0, ptr %5, align 4, !tbaa !12
  br label %26

26:                                               ; preds = %56, %15
  %27 = load i32, ptr %5, align 4, !tbaa !12
  %28 = load ptr, ptr %3, align 8, !tbaa !58
  %29 = getelementptr inbounds nuw %struct.Abc_Frame_t_, ptr %28, i32 0, i32 83
  %30 = load ptr, ptr %29, align 8, !tbaa !136
  %31 = call i32 @Vec_IntSize(ptr noundef %30)
  %32 = icmp slt i32 %27, %31
  br i1 %32, label %33, label %39

33:                                               ; preds = %26
  %34 = load ptr, ptr %3, align 8, !tbaa !58
  %35 = getelementptr inbounds nuw %struct.Abc_Frame_t_, ptr %34, i32 0, i32 83
  %36 = load ptr, ptr %35, align 8, !tbaa !136
  %37 = load i32, ptr %5, align 4, !tbaa !12
  %38 = call i32 @Vec_IntEntry(ptr noundef %36, i32 noundef %37)
  store i32 %38, ptr %6, align 4, !tbaa !12
  br label %39

39:                                               ; preds = %33, %26
  %40 = phi i1 [ false, %26 ], [ true, %33 ]
  br i1 %40, label %41, label %59

41:                                               ; preds = %39
  %42 = load i32, ptr %6, align 4, !tbaa !12
  %43 = icmp sge i32 %42, 0
  br i1 %43, label %44, label %55

44:                                               ; preds = %41
  %45 = load ptr, ptr %4, align 8, !tbaa !8
  %46 = load i32, ptr %6, align 4, !tbaa !12
  %47 = call i32 @Abc_Lit2Var(i32 noundef %46)
  %48 = call float @Vec_FltEntry(ptr noundef %45, i32 noundef %47)
  %49 = fmul float 1.000000e+04, %48
  %50 = fptosi float %49 to i32
  %51 = load ptr, ptr %7, align 8, !tbaa !83
  %52 = load i32, ptr %5, align 4, !tbaa !12
  %53 = sext i32 %52 to i64
  %54 = getelementptr inbounds i32, ptr %51, i64 %53
  store i32 %50, ptr %54, align 4, !tbaa !12
  br label %55

55:                                               ; preds = %44, %41
  br label %56

56:                                               ; preds = %55
  %57 = load i32, ptr %5, align 4, !tbaa !12
  %58 = add nsw i32 %57, 1
  store i32 %58, ptr %5, align 4, !tbaa !12
  br label %26, !llvm.loop !137

59:                                               ; preds = %39
  %60 = load ptr, ptr %4, align 8, !tbaa !8
  call void @Vec_IntFree(ptr noundef %60)
  %61 = load ptr, ptr %7, align 8, !tbaa !83
  store ptr %61, ptr %2, align 8
  store i32 1, ptr %8, align 4
  br label %62

62:                                               ; preds = %59, %13
  call void @llvm.lifetime.end.p0(i64 8, ptr %7) #13
  call void @llvm.lifetime.end.p0(i64 4, ptr %6) #13
  call void @llvm.lifetime.end.p0(i64 4, ptr %5) #13
  call void @llvm.lifetime.end.p0(i64 8, ptr %4) #13
  %63 = load ptr, ptr %2, align 8
  ret ptr %63
}