; Function Attrs: nounwind uwtable
define noalias noundef ptr @Abc_FrameReadMiniLutSwitching(ptr noundef readonly captures(none) %0) local_unnamed_addr #2 {
  %2 = getelementptr inbounds nuw i8, ptr %0, i64 584
  %3 = load ptr, ptr %2, align 8, !tbaa !111
  %4 = icmp eq ptr %3, null
  br i1 %4, label %5, label %6

5:                                                ; preds = %1
  %puts = tail call i32 @puts(ptr nonnull dereferenceable(1) @str.12)
  br label %32

6:                                                ; preds = %1
  %7 = tail call ptr @Gia_ManComputeSwitchProbs(ptr noundef nonnull %3, i32 noundef 48, i32 noundef 16, i32 noundef 0) #25
  %8 = getelementptr inbounds nuw i8, ptr %0, i64 600
  %9 = load ptr, ptr %8, align 8, !tbaa !119
  %10 = getelementptr i8, ptr %9, i64 4
  %.val19 = load i32, ptr %10, align 4, !tbaa !34
  %11 = sext i32 %.val19 to i64
  %12 = tail call noalias ptr @calloc(i64 noundef %11, i64 noundef 4) #28
  %13 = icmp sgt i32 %.val19, 0
  br i1 %13, label %.lr.ph, label %.critedge

.lr.ph:                                           ; preds = %6
  %14 = getelementptr i8, ptr %9, i64 8
  %.val = load ptr, ptr %14, align 8, !tbaa !11
  %15 = getelementptr i8, ptr %7, i64 8
  %wide.trip.count = zext nneg i32 %.val19 to i64
  br label %16

16:                                               ; preds = %.lr.ph, %28
  %indvars.iv = phi i64 [ 0, %.lr.ph ], [ %indvars.iv.next, %28 ]
  %17 = getelementptr inbounds nuw i32, ptr %.val, i64 %indvars.iv
  %18 = load i32, ptr %17, align 4, !tbaa !10
  %19 = icmp sgt i32 %18, -1
  br i1 %19, label %20, label %28

20:                                               ; preds = %16
  %21 = lshr i32 %18, 1
  %.val20 = load ptr, ptr %15, align 8, !tbaa !120
  %22 = zext nneg i32 %21 to i64
  %23 = getelementptr inbounds nuw float, ptr %.val20, i64 %22
  %24 = load float, ptr %23, align 4, !tbaa !123
  %25 = fmul float %24, 1.000000e+04
  %26 = fptosi float %25 to i32
  %27 = getelementptr inbounds nuw i32, ptr %12, i64 %indvars.iv
  store i32 %26, ptr %27, align 4, !tbaa !10
  br label %28

28:                                               ; preds = %16, %20
  %indvars.iv.next = add nuw nsw i64 %indvars.iv, 1
  %exitcond.not = icmp eq i64 %indvars.iv.next, %wide.trip.count
  br i1 %exitcond.not, label %.critedge, label %16, !llvm.loop !124

.critedge:                                        ; preds = %28, %6
  %29 = getelementptr inbounds nuw i8, ptr %7, i64 8
  %30 = load ptr, ptr %29, align 8, !tbaa !11
  %.not.i = icmp eq ptr %30, null
  br i1 %.not.i, label %Vec_IntFree.exit, label %31

31:                                               ; preds = %.critedge
  tail call void @free(ptr noundef nonnull %30) #25
  br label %Vec_IntFree.exit

Vec_IntFree.exit:                                 ; preds = %.critedge, %31
  tail call void @free(ptr noundef nonnull %7) #25
  br label %32

32:                                               ; preds = %Vec_IntFree.exit, %5
  %.0 = phi ptr [ null, %5 ], [ %12, %Vec_IntFree.exit ]
  ret ptr %.0
}